; Function Attrs: mustprogress nounwind null_pointer_is_valid sspstrong uwtable
define void @_ZN9PrefsItemD2Ev(ptr noundef align 8 dereferenceable_or_null(105) initializes((0, 8)) %0) unnamed_addr #7 align 2 {
  store ptr getelementptr inbounds nuw inrange(-16, 16) (i8, ptr @_ZTV9PrefsItem, i64 16), ptr %0, align 8
  %2 = getelementptr inbounds nuw i8, ptr %0, i64 80
  %3 = load ptr, ptr %2, align 8
  %.not.i.i.i = icmp eq ptr %3, null
  br i1 %.not.i.i.i, label %_ZN7QStringD2Ev.exit, label %_ZN17QArrayDataPointerIDsE5derefEv.exit.i.i

_ZN17QArrayDataPointerIDsE5derefEv.exit.i.i:      ; preds = %1
  %4 = atomicrmw sub ptr %3, i32 1 seq_cst, align 4
  %.not.i.i = icmp eq i32 %4, 1
  br i1 %.not.i.i, label %5, label %_ZN7QStringD2Ev.exit

5:                                                ; preds = %_ZN17QArrayDataPointerIDsE5derefEv.exit.i.i
  %6 = load ptr, ptr %2, align 8
  tail call void @_ZN10QArrayData10deallocateEPS_xx(ptr noundef %6, i64 noundef 2, i64 noundef 8) #26
  br label %_ZN7QStringD2Ev.exit

_ZN7QStringD2Ev.exit:                             ; preds = %1, %_ZN17QArrayDataPointerIDsE5derefEv.exit.i.i, %5
  %7 = getelementptr inbounds nuw i8, ptr %0, i64 56
  %8 = load ptr, ptr %7, align 8
  %.not.i.i.i1 = icmp eq ptr %8, null
  br i1 %.not.i.i.i1, label %_ZN7QStringD2Ev.exit4, label %_ZN17QArrayDataPointerIDsE5derefEv.exit.i.i2

_ZN17QArrayDataPointerIDsE5derefEv.exit.i.i2:     ; preds = %_ZN7QStringD2Ev.exit
  %9 = atomicrmw sub ptr %8, i32 1 seq_cst, align 4
  %.not.i.i3 = icmp eq i32 %9, 1
  br i1 %.not.i.i3, label %10, label %_ZN7QStringD2Ev.exit4

10:                                               ; preds = %_ZN17QArrayDataPointerIDsE5derefEv.exit.i.i2
  %11 = load ptr, ptr %7, align 8
  tail call void @_ZN10QArrayData10deallocateEPS_xx(ptr noundef %11, i64 noundef 2, i64 noundef 8) #26
  br label %_ZN7QStringD2Ev.exit4

_ZN7QStringD2Ev.exit4:                            ; preds = %_ZN7QStringD2Ev.exit, %_ZN17QArrayDataPointerIDsE5derefEv.exit.i.i2, %10
  tail call void @_ZN19ModelHelperTreeItemI9PrefsItemED2Ev(ptr noundef align 8 dereferenceable_or_null(40) %0) #26
  ret void
}